target datalayout = "e-m:e-p270:32:32-p271:32:32-p272:64:64-i64:64-i128:128-f80:128-n8:16:32:64-S128"
target triple = "x86_64-pc-linux-gnu"

%struct.hb_face_t = type { %struct.hb_object_header_t, ptr, ptr, ptr, i32, %struct.hb_atomic_int_t, %struct.hb_atomic_int_t, %struct.hb_shaper_object_dataset_t, %struct.hb_ot_face_t, %struct.hb_atomic_ptr_t.138 }
%struct.hb_object_header_t = type { %struct.hb_reference_count_t, %struct.hb_atomic_int_t, %struct.hb_atomic_ptr_t }
%struct.hb_reference_count_t = type { %struct.hb_atomic_int_t }
%struct.hb_atomic_ptr_t = type { ptr }
%struct.hb_atomic_int_t = type { i32 }
%struct.hb_shaper_object_dataset_t = type { ptr, %struct.hb_shaper_lazy_loader_t, %struct.hb_shaper_lazy_loader_t.1 }
%struct.hb_shaper_lazy_loader_t = type { %struct.hb_lazy_loader_t }
%struct.hb_lazy_loader_t = type { %struct.hb_atomic_ptr_t.0 }
%struct.hb_atomic_ptr_t.0 = type { ptr }
%struct.hb_shaper_lazy_loader_t.1 = type { %struct.hb_lazy_loader_t.2 }
%struct.hb_lazy_loader_t.2 = type { %struct.hb_atomic_ptr_t.4 }
%struct.hb_atomic_ptr_t.4 = type { ptr }
%struct.hb_ot_face_t = type { ptr, %struct.hb_table_lazy_loader_t, %struct.hb_table_lazy_loader_t.7, %struct.hb_face_lazy_loader_t, %struct.hb_table_lazy_loader_t.12, %struct.hb_face_lazy_loader_t.15, %struct.hb_table_lazy_loader_t.19, %struct.hb_face_lazy_loader_t.22, %struct.hb_face_lazy_loader_t.26, %struct.hb_table_lazy_loader_t.30, %struct.hb_face_lazy_loader_t.33, %struct.hb_table_lazy_loader_t.37, %struct.hb_face_lazy_loader_t.40, %struct.hb_table_lazy_loader_t.44, %struct.hb_table_lazy_loader_t.47, %struct.hb_face_lazy_loader_t.50, %struct.hb_face_lazy_loader_t.54, %struct.hb_face_lazy_loader_t.58, %struct.hb_table_lazy_loader_t.62, %struct.hb_table_lazy_loader_t.65, %struct.hb_table_lazy_loader_t.68, %struct.hb_face_lazy_loader_t.71, %struct.hb_table_lazy_loader_t.75, %struct.hb_table_lazy_loader_t.78, %struct.hb_face_lazy_loader_t.81, %struct.hb_face_lazy_loader_t.85, %struct.hb_face_lazy_loader_t.89, %struct.hb_table_lazy_loader_t.93, %struct.hb_table_lazy_loader_t.96, %struct.hb_table_lazy_loader_t.99, %struct.hb_table_lazy_loader_t.102, %struct.hb_table_lazy_loader_t.105, %struct.hb_table_lazy_loader_t.108, %struct.hb_table_lazy_loader_t.111, %struct.hb_table_lazy_loader_t.114, %struct.hb_table_lazy_loader_t.117, %struct.hb_table_lazy_loader_t.120, %struct.hb_face_lazy_loader_t.123, %struct.hb_face_lazy_loader_t.127, %struct.hb_face_lazy_loader_t.131, %struct.hb_table_lazy_loader_t.135 }
%struct.hb_table_lazy_loader_t = type { %struct.hb_lazy_loader_t.5 }
%struct.hb_lazy_loader_t.5 = type { %struct.hb_atomic_ptr_t.6 }
%struct.hb_atomic_ptr_t.6 = type { ptr }
%struct.hb_table_lazy_loader_t.7 = type { %struct.hb_lazy_loader_t.8 }
%struct.hb_lazy_loader_t.8 = type { %struct.hb_atomic_ptr_t.6 }
%struct.hb_face_lazy_loader_t = type { %struct.hb_lazy_loader_t.9 }
%struct.hb_lazy_loader_t.9 = type { %struct.hb_atomic_ptr_t.11 }
%struct.hb_atomic_ptr_t.11 = type { ptr }
%struct.hb_table_lazy_loader_t.12 = type { %struct.hb_lazy_loader_t.13 }
%struct.hb_lazy_loader_t.13 = type { %struct.hb_atomic_ptr_t.6 }
%struct.hb_face_lazy_loader_t.15 = type { %struct.hb_lazy_loader_t.16 }
%struct.hb_lazy_loader_t.16 = type { %struct.hb_atomic_ptr_t.18 }
%struct.hb_atomic_ptr_t.18 = type { ptr }
%struct.hb_table_lazy_loader_t.19 = type { %struct.hb_lazy_loader_t.20 }
%struct.hb_lazy_loader_t.20 = type { %struct.hb_atomic_ptr_t.6 }
%struct.hb_face_lazy_loader_t.22 = type { %struct.hb_lazy_loader_t.23 }
%struct.hb_lazy_loader_t.23 = type { %struct.hb_atomic_ptr_t.25 }
%struct.hb_atomic_ptr_t.25 = type { ptr }
%struct.hb_face_lazy_loader_t.26 = type { %struct.hb_lazy_loader_t.27 }
%struct.hb_lazy_loader_t.27 = type { %struct.hb_atomic_ptr_t.29 }
%struct.hb_atomic_ptr_t.29 = type { ptr }
%struct.hb_table_lazy_loader_t.30 = type { %struct.hb_lazy_loader_t.31 }
%struct.hb_lazy_loader_t.31 = type { %struct.hb_atomic_ptr_t.6 }
%struct.hb_face_lazy_loader_t.33 = type { %struct.hb_lazy_loader_t.34 }
%struct.hb_lazy_loader_t.34 = type { %struct.hb_atomic_ptr_t.36 }
%struct.hb_atomic_ptr_t.36 = type { ptr }
%struct.hb_table_lazy_loader_t.37 = type { %struct.hb_lazy_loader_t.38 }
%struct.hb_lazy_loader_t.38 = type { %struct.hb_atomic_ptr_t.6 }
%struct.hb_face_lazy_loader_t.40 = type { %struct.hb_lazy_loader_t.41 }
%struct.hb_lazy_loader_t.41 = type { %struct.hb_atomic_ptr_t.43 }
%struct.hb_atomic_ptr_t.43 = type { ptr }
%struct.hb_table_lazy_loader_t.44 = type { %struct.hb_lazy_loader_t.45 }
%struct.hb_lazy_loader_t.45 = type { %struct.hb_atomic_ptr_t.6 }
%struct.hb_table_lazy_loader_t.47 = type { %struct.hb_lazy_loader_t.48 }
%struct.hb_lazy_loader_t.48 = type { %struct.hb_atomic_ptr_t.6 }
%struct.hb_face_lazy_loader_t.50 = type { %struct.hb_lazy_loader_t.51 }
%struct.hb_lazy_loader_t.51 = type { %struct.hb_atomic_ptr_t.53 }
%struct.hb_atomic_ptr_t.53 = type { ptr }
%struct.hb_face_lazy_loader_t.54 = type { %struct.hb_lazy_loader_t.55 }
%struct.hb_lazy_loader_t.55 = type { %struct.hb_atomic_ptr_t.57 }
%struct.hb_atomic_ptr_t.57 = type { ptr }
%struct.hb_face_lazy_loader_t.58 = type { %struct.hb_lazy_loader_t.59 }
%struct.hb_lazy_loader_t.59 = type { %struct.hb_atomic_ptr_t.61 }
%struct.hb_atomic_ptr_t.61 = type { ptr }
%struct.hb_table_lazy_loader_t.62 = type { %struct.hb_lazy_loader_t.63 }
%struct.hb_lazy_loader_t.63 = type { %struct.hb_atomic_ptr_t.6 }
%struct.hb_table_lazy_loader_t.65 = type { %struct.hb_lazy_loader_t.66 }
%struct.hb_lazy_loader_t.66 = type { %struct.hb_atomic_ptr_t.6 }
%struct.hb_table_lazy_loader_t.68 = type { %struct.hb_lazy_loader_t.69 }
%struct.hb_lazy_loader_t.69 = type { %struct.hb_atomic_ptr_t.6 }
%struct.hb_face_lazy_loader_t.71 = type { %struct.hb_lazy_loader_t.72 }
%struct.hb_lazy_loader_t.72 = type { %struct.hb_atomic_ptr_t.74 }
%struct.hb_atomic_ptr_t.74 = type { ptr }
%struct.hb_table_lazy_loader_t.75 = type { %struct.hb_lazy_loader_t.76 }
%struct.hb_lazy_loader_t.76 = type { %struct.hb_atomic_ptr_t.6 }
%struct.hb_table_lazy_loader_t.78 = type { %struct.hb_lazy_loader_t.79 }
%struct.hb_lazy_loader_t.79 = type { %struct.hb_atomic_ptr_t.6 }
%struct.hb_face_lazy_loader_t.81 = type { %struct.hb_lazy_loader_t.82 }
%struct.hb_lazy_loader_t.82 = type { %struct.hb_atomic_ptr_t.84 }
%struct.hb_atomic_ptr_t.84 = type { ptr }
%struct.hb_face_lazy_loader_t.85 = type { %struct.hb_lazy_loader_t.86 }
%struct.hb_lazy_loader_t.86 = type { %struct.hb_atomic_ptr_t.88 }
%struct.hb_atomic_ptr_t.88 = type { ptr }
%struct.hb_face_lazy_loader_t.89 = type { %struct.hb_lazy_loader_t.90 }
%struct.hb_lazy_loader_t.90 = type { %struct.hb_atomic_ptr_t.92 }
%struct.hb_atomic_ptr_t.92 = type { ptr }
%struct.hb_table_lazy_loader_t.93 = type { %struct.hb_lazy_loader_t.94 }
%struct.hb_lazy_loader_t.94 = type { %struct.hb_atomic_ptr_t.6 }
%struct.hb_table_lazy_loader_t.96 = type { %struct.hb_lazy_loader_t.97 }
%struct.hb_lazy_loader_t.97 = type { %struct.hb_atomic_ptr_t.6 }
%struct.hb_table_lazy_loader_t.99 = type { %struct.hb_lazy_loader_t.100 }
%struct.hb_lazy_loader_t.100 = type { %struct.hb_atomic_ptr_t.6 }
%struct.hb_table_lazy_loader_t.102 = type { %struct.hb_lazy_loader_t.103 }
%struct.hb_lazy_loader_t.103 = type { %struct.hb_atomic_ptr_t.6 }
%struct.hb_table_lazy_loader_t.105 = type { %struct.hb_lazy_loader_t.106 }
%struct.hb_lazy_loader_t.106 = type { %struct.hb_atomic_ptr_t.6 }
%struct.hb_table_lazy_loader_t.108 = type { %struct.hb_lazy_loader_t.109 }
%struct.hb_lazy_loader_t.109 = type { %struct.hb_atomic_ptr_t.6 }
%struct.hb_table_lazy_loader_t.111 = type { %struct.hb_lazy_loader_t.112 }
%struct.hb_lazy_loader_t.112 = type { %struct.hb_atomic_ptr_t.6 }
%struct.hb_table_lazy_loader_t.114 = type { %struct.hb_lazy_loader_t.115 }
%struct.hb_lazy_loader_t.115 = type { %struct.hb_atomic_ptr_t.6 }
%struct.hb_table_lazy_loader_t.117 = type { %struct.hb_lazy_loader_t.118 }
%struct.hb_lazy_loader_t.118 = type { %struct.hb_atomic_ptr_t.6 }
%struct.hb_table_lazy_loader_t.120 = type { %struct.hb_lazy_loader_t.121 }
%struct.hb_lazy_loader_t.121 = type { %struct.hb_atomic_ptr_t.6 }
%struct.hb_face_lazy_loader_t.123 = type { %struct.hb_lazy_loader_t.124 }
%struct.hb_lazy_loader_t.124 = type { %struct.hb_atomic_ptr_t.126 }
%struct.hb_atomic_ptr_t.126 = type { ptr }
%struct.hb_face_lazy_loader_t.127 = type { %struct.hb_lazy_loader_t.128 }
%struct.hb_lazy_loader_t.128 = type { %struct.hb_atomic_ptr_t.130 }
%struct.hb_atomic_ptr_t.130 = type { ptr }
%struct.hb_face_lazy_loader_t.131 = type { %struct.hb_lazy_loader_t.132 }
%struct.hb_lazy_loader_t.132 = type { %struct.hb_atomic_ptr_t.134 }
%struct.hb_atomic_ptr_t.134 = type { ptr }
%struct.hb_table_lazy_loader_t.135 = type { %struct.hb_lazy_loader_t.136 }
%struct.hb_lazy_loader_t.136 = type { %struct.hb_atomic_ptr_t.6 }
%struct.hb_atomic_ptr_t.138 = type { ptr }
%struct.hb_font_t = type { %struct.hb_object_header_t, i32, i32, ptr, ptr, i32, i32, float, float, i8, i32, i32, float, float, float, float, i64, i64, i32, i32, float, i32, i32, ptr, ptr, ptr, ptr, ptr, %struct.hb_shaper_object_dataset_t.159 }
%struct.hb_shaper_object_dataset_t.159 = type { ptr, %struct.hb_shaper_lazy_loader_t.160, %struct.hb_shaper_lazy_loader_t.164 }
%struct.hb_shaper_lazy_loader_t.160 = type { %struct.hb_lazy_loader_t.161 }
%struct.hb_lazy_loader_t.161 = type { %struct.hb_atomic_ptr_t.163 }
%struct.hb_atomic_ptr_t.163 = type { ptr }
%struct.hb_shaper_lazy_loader_t.164 = type { %struct.hb_lazy_loader_t.165 }
%struct.hb_lazy_loader_t.165 = type { %struct.hb_atomic_ptr_t.167 }
%struct.hb_atomic_ptr_t.167 = type { ptr }
%struct.hb_buffer_t = type <{ %struct.hb_object_header_t, ptr, i32, i32, i32, i32, i32, i32, %struct.hb_segment_properties_t, i8, i8, i8, i8, i32, i32, i32, i32, [4 x i8], ptr, ptr, ptr, [2 x [5 x i32]], [2 x i32], i8, i8, [2 x i8], i32, i32, i32, ptr, ptr, ptr, i32, [4 x i8] }>
%struct.hb_segment_properties_t = type { i32, i32, ptr, ptr, ptr }
%struct.GSUBProxy = type { ptr }
%struct.hb_ot_map_t = type { [2 x i32], [2 x i8], i32, %struct.hb_vector_t, [2 x %struct.hb_vector_t.157], [2 x %struct.hb_vector_t.158] }
%struct.hb_vector_t = type { i32, i32, ptr }
%struct.hb_vector_t.157 = type { i32, i32, ptr }
%struct.hb_vector_t.158 = type { i32, i32, ptr }

@.str.2 = private unnamed_addr constant [39 x i8] c"start table GSUB script tag '%c%c%c%c'\00", align 1
@.str.3 = private unnamed_addr constant [37 x i8] c"end table GSUB script tag '%c%c%c%c'\00", align 1

; Function Attrs: mustprogress nounwind uwtable
define linkonce_odr hidden noundef ptr @_ZN16hb_lazy_loader_tIN2OT18GSUB_accelerator_tE21hb_face_lazy_loader_tIS1_Lj25EE9hb_face_tLj25ES1_E7convertEPS1_(ptr noundef %0) #3 comdat align 2 {
  %2 = alloca ptr, align 8
  store ptr %0, ptr %2, align 8
  %3 = load ptr, ptr %2, align 8
  ret ptr %3
}

; Function Attrs: mustprogress uwtable
define linkonce_odr hidden noundef ptr @_ZNK16hb_lazy_loader_tIN2OT18GSUB_accelerator_tE21hb_face_lazy_loader_tIS1_Lj25EE9hb_face_tLj25ES1_E3getEv(ptr noundef nonnull align 8 dereferenceable(8) %0) #0 comdat align 2 {
  %2 = alloca ptr, align 8
  store ptr %0, ptr %2, align 8
  %3 = load ptr, ptr %2, align 8
  %4 = call noundef ptr @_ZNK16hb_lazy_loader_tIN2OT18GSUB_accelerator_tE21hb_face_lazy_loader_tIS1_Lj25EE9hb_face_tLj25ES1_E10get_storedEv(ptr noundef nonnull align 8 dereferenceable(8) %3)
  %5 = call noundef ptr @_ZN16hb_lazy_loader_tIN2OT18GSUB_accelerator_tE21hb_face_lazy_loader_tIS1_Lj25EE9hb_face_tLj25ES1_E7convertEPS1_(ptr noundef %4)
  ret ptr %5
}

; Function Attrs: mustprogress uwtable
define linkonce_odr hidden noundef nonnull align 8 dereferenceable(24) ptr @_ZNK16hb_lazy_loader_tIN2OT18GSUB_accelerator_tE21hb_face_lazy_loader_tIS1_Lj25EE9hb_face_tLj25ES1_EdeIS1_TnPN12hb_enable_ifIXntsr10hb_is_sameIT_vEE5valueEvE4typeELPv0EEERKS8_v(ptr noundef nonnull align 8 dereferenceable(8) %0) #0 comdat align 2 {
  %2 = alloca ptr, align 8
  store ptr %0, ptr %2, align 8
  %3 = load ptr, ptr %2, align 8
  %4 = call noundef ptr @_ZNK16hb_lazy_loader_tIN2OT18GSUB_accelerator_tE21hb_face_lazy_loader_tIS1_Lj25EE9hb_face_tLj25ES1_E3getEv(ptr noundef nonnull align 8 dereferenceable(8) %3)
  ret ptr %4
}

; Function Attrs: mustprogress nounwind uwtable
define linkonce_odr hidden noundef zeroext i1 @_ZN11hb_buffer_t9messagingEv(ptr noundef nonnull align 8 dereferenceable(220) %0) #3 comdat align 2 {
  %2 = alloca ptr, align 8
  store ptr %0, ptr %2, align 8
  %3 = load ptr, ptr %2, align 8
  %4 = getelementptr inbounds %struct.hb_buffer_t, ptr %3, i32 0, i32 29
  %5 = load ptr, ptr %4, align 8
  %6 = icmp ne ptr %5, null
  ret i1 %6
}

; Function Attrs: mustprogress uwtable
define linkonce_odr hidden void @_ZN9GSUBProxyC2EP9hb_face_t(ptr noundef nonnull align 8 dereferenceable(8) %0, ptr noundef %1) unnamed_addr #0 comdat align 2 {
  %3 = alloca ptr, align 8
  %4 = alloca ptr, align 8
  store ptr %0, ptr %3, align 8
  store ptr %1, ptr %4, align 8
  %5 = load ptr, ptr %3, align 8
  %6 = getelementptr inbounds %struct.GSUBProxy, ptr %5, i32 0, i32 0
  %7 = load ptr, ptr %4, align 8
  %8 = getelementptr inbounds %struct.hb_face_t, ptr %7, i32 0, i32 8
  %9 = getelementptr inbounds %struct.hb_ot_face_t, ptr %8, i32 0, i32 25
  %10 = call noundef nonnull align 8 dereferenceable(24) ptr @_ZNK16hb_lazy_loader_tIN2OT18GSUB_accelerator_tE21hb_face_lazy_loader_tIS1_Lj25EE9hb_face_tLj25ES1_EdeIS1_TnPN12hb_enable_ifIXntsr10hb_is_sameIT_vEE5valueEvE4typeELPv0EEERKS8_v(ptr noundef nonnull align 8 dereferenceable(8) %9)
  store ptr %10, ptr %6, align 8
  ret void
}

; Function Attrs: mustprogress uwtable
define hidden void @_ZNK11hb_ot_map_t10substituteEPK18hb_ot_shape_plan_tP9hb_font_tP11hb_buffer_t(ptr noundef nonnull align 8 dereferenceable(96) %0, ptr noundef %1, ptr noundef %2, ptr noundef %3) #0 align 2 {
  %5 = alloca ptr, align 8
  %6 = alloca ptr, align 8
  %7 = alloca ptr, align 8
  %8 = alloca ptr, align 8
  %9 = alloca %struct.GSUBProxy, align 8
  store ptr %0, ptr %5, align 8
  store ptr %1, ptr %6, align 8
  store ptr %2, ptr %7, align 8
  store ptr %3, ptr %8, align 8
  %10 = load ptr, ptr %5, align 8
  %11 = load ptr, ptr %7, align 8
  %12 = getelementptr inbounds %struct.hb_font_t, ptr %11, i32 0, i32 4
  %13 = load ptr, ptr %12, align 8
  call void @_ZN9GSUBProxyC2EP9hb_face_t(ptr noundef nonnull align 8 dereferenceable(8) %9, ptr noundef %13)
  %14 = load ptr, ptr %8, align 8
  %15 = call noundef zeroext i1 @_ZN11hb_buffer_t9messagingEv(ptr noundef nonnull align 8 dereferenceable(220) %14)
  br i1 %15, label %16, label %48

16:                                               ; preds = %4
  %17 = load ptr, ptr %8, align 8
  %18 = load ptr, ptr %7, align 8
  %19 = getelementptr inbounds %struct.hb_ot_map_t, ptr %10, i32 0, i32 0
  %20 = getelementptr inbounds [2 x i32], ptr %19, i64 0, i64 0
  %21 = load i32, ptr %20, align 8
  %22 = lshr i32 %21, 24
  %23 = and i32 %22, 255
  %24 = trunc i32 %23 to i8
  %25 = zext i8 %24 to i32
  %26 = getelementptr inbounds %struct.hb_ot_map_t, ptr %10, i32 0, i32 0
  %27 = getelementptr inbounds [2 x i32], ptr %26, i64 0, i64 0
  %28 = load i32, ptr %27, align 8
  %29 = lshr i32 %28, 16
  %30 = and i32 %29, 255
  %31 = trunc i32 %30 to i8
  %32 = zext i8 %31 to i32
  %33 = getelementptr inbounds %struct.hb_ot_map_t, ptr %10, i32 0, i32 0
  %34 = getelementptr inbounds [2 x i32], ptr %33, i64 0, i64 0
  %35 = load i32, ptr %34, align 8
  %36 = lshr i32 %35, 8
  %37 = and i32 %36, 255
  %38 = trunc i32 %37 to i8
  %39 = zext i8 %38 to i32
  %40 = getelementptr inbounds %struct.hb_ot_map_t, ptr %10, i32 0, i32 0
  %41 = getelementptr inbounds [2 x i32], ptr %40, i64 0, i64 0
  %42 = load i32, ptr %41, align 8
  %43 = and i32 %42, 255
  %44 = trunc i32 %43 to i8
  %45 = zext i8 %44 to i32
  %46 = call noundef zeroext i1 (ptr, ptr, ptr, ...) @_ZN11hb_buffer_t7messageEP9hb_font_tPKcz(ptr noundef nonnull align 8 dereferenceable(220) %17, ptr noundef %18, ptr noundef @.str.2, i32 noundef %25, i32 noundef %32, i32 noundef %39, i32 noundef %45)
  br i1 %46, label %48, label %47

47:                                               ; preds = %16
  br label %85

48:                                               ; preds = %16, %4
  %49 = load ptr, ptr %6, align 8
  %50 = load ptr, ptr %7, align 8
  %51 = load ptr, ptr %8, align 8
  call void @_ZNK11hb_ot_map_t5applyI9GSUBProxyEEvRKT_PK18hb_ot_shape_plan_tP9hb_font_tP11hb_buffer_t(ptr noundef nonnull align 8 dereferenceable(96) %10, ptr noundef nonnull align 8 dereferenceable(8) %9, ptr noundef %49, ptr noundef %50, ptr noundef %51)
  %52 = load ptr, ptr %8, align 8
  %53 = call noundef zeroext i1 @_ZN11hb_buffer_t9messagingEv(ptr noundef nonnull align 8 dereferenceable(220) %52)
  br i1 %53, label %54, label %85

54:                                               ; preds = %48
  %55 = load ptr, ptr %8, align 8
  %56 = load ptr, ptr %7, align 8
  %57 = getelementptr inbounds %struct.hb_ot_map_t, ptr %10, i32 0, i32 0
  %58 = getelementptr inbounds [2 x i32], ptr %57, i64 0, i64 0
  %59 = load i32, ptr %58, align 8
  %60 = lshr i32 %59, 24
  %61 = and i32 %60, 255
  %62 = trunc i32 %61 to i8
  %63 = zext i8 %62 to i32
  %64 = getelementptr inbounds %struct.hb_ot_map_t, ptr %10, i32 0, i32 0
  %65 = getelementptr inbounds [2 x i32], ptr %64, i64 0, i64 0
  %66 = load i32, ptr %65, align 8
  %67 = lshr i32 %66, 16
  %68 = and i32 %67, 255
  %69 = trunc i32 %68 to i8
  %70 = zext i8 %69 to i32
  %71 = getelementptr inbounds %struct.hb_ot_map_t, ptr %10, i32 0, i32 0
  %72 = getelementptr inbounds [2 x i32], ptr %71, i64 0, i64 0
  %73 = load i32, ptr %72, align 8
  %74 = lshr i32 %73, 8
  %75 = and i32 %74, 255
  %76 = trunc i32 %75 to i8
  %77 = zext i8 %76 to i32
  %78 = getelementptr inbounds %struct.hb_ot_map_t, ptr %10, i32 0, i32 0
  %79 = getelementptr inbounds [2 x i32], ptr %78, i64 0, i64 0
  %80 = load i32, ptr %79, align 8
  %81 = and i32 %80, 255
  %82 = trunc i32 %81 to i8
  %83 = zext i8 %82 to i32
  %84 = call noundef zeroext i1 (ptr, ptr, ptr, ...) @_ZN11hb_buffer_t7messageEP9hb_font_tPKcz(ptr noundef nonnull align 8 dereferenceable(220) %55, ptr noundef %56, ptr noundef @.str.3, i32 noundef %63, i32 noundef %70, i32 noundef %77, i32 noundef %83)
  br label %85

85:                                               ; preds = %54, %48, %47
  ret void
}