; Function Attrs: mustprogress uwtable
define hidden void @_ZNK11hb_ot_map_t10substituteEPK18hb_ot_shape_plan_tP9hb_font_tP11hb_buffer_t(ptr noundef nonnull align 8 dereferenceable(96) %0, ptr noundef %1, ptr noundef %2, ptr noundef %3) local_unnamed_addr #0 align 2 {
  %5 = alloca %struct.GSUBProxy, align 8
  %6 = getelementptr inbounds i8, ptr %2, i64 32
  %7 = load ptr, ptr %6, align 8
  %8 = getelementptr inbounds i8, ptr %7, i64 280
  %9 = tail call noundef nonnull align 8 dereferenceable(24) ptr @_ZNK16hb_lazy_loader_tIN2OT18GSUB_accelerator_tE21hb_face_lazy_loader_tIS1_Lj25EE9hb_face_tLj25ES1_E10get_storedEv(ptr noundef nonnull align 8 dereferenceable(8) %8)
  store ptr %9, ptr %5, align 8
  %10 = getelementptr inbounds i8, ptr %3, i64 192
  %11 = load ptr, ptr %10, align 8
  %.not = icmp eq ptr %11, null
  br i1 %.not, label %21, label %12

12:                                               ; preds = %4
  %13 = load i32, ptr %0, align 8
  %14 = lshr i32 %13, 24
  %15 = lshr i32 %13, 16
  %16 = and i32 %15, 255
  %17 = lshr i32 %13, 8
  %18 = and i32 %17, 255
  %19 = and i32 %13, 255
  %20 = tail call noundef zeroext i1 (ptr, ptr, ptr, ...) @_ZN11hb_buffer_t7messageEP9hb_font_tPKcz(ptr noundef nonnull align 8 dereferenceable(220) %3, ptr noundef nonnull %2, ptr noundef nonnull @.str.2, i32 noundef %14, i32 noundef %16, i32 noundef %18, i32 noundef %19)
  br i1 %20, label %21, label %32

21:                                               ; preds = %12, %4
  call void @_ZNK11hb_ot_map_t5applyI9GSUBProxyEEvRKT_PK18hb_ot_shape_plan_tP9hb_font_tP11hb_buffer_t(ptr noundef nonnull align 8 dereferenceable(96) %0, ptr noundef nonnull align 8 dereferenceable(8) %5, ptr noundef %1, ptr noundef nonnull %2, ptr noundef nonnull %3)
  %22 = load ptr, ptr %10, align 8
  %.not11 = icmp eq ptr %22, null
  br i1 %.not11, label %32, label %23

23:                                               ; preds = %21
  %24 = load i32, ptr %0, align 8
  %25 = lshr i32 %24, 24
  %26 = lshr i32 %24, 16
  %27 = and i32 %26, 255
  %28 = lshr i32 %24, 8
  %29 = and i32 %28, 255
  %30 = and i32 %24, 255
  %31 = call noundef zeroext i1 (ptr, ptr, ptr, ...) @_ZN11hb_buffer_t7messageEP9hb_font_tPKcz(ptr noundef nonnull align 8 dereferenceable(220) %3, ptr noundef nonnull %2, ptr noundef nonnull @.str.3, i32 noundef %25, i32 noundef %27, i32 noundef %29, i32 noundef %30)
  br label %32

32:                                               ; preds = %12, %23, %21
  ret void
}